; ModuleID = 'source-C-CXX/49/1641.c'
source_filename = "source-C-CXX/49/1641.c"
target datalayout = "e-m:e-p270:32:32-p271:32:32-p272:64:64-i64:64-f80:128-n8:16:32:64-S128"
target triple = "x86_64-pc-linux-gnu"

@.str = private unnamed_addr constant [3 x i8] c"%d\00", align 1
@.str.1 = private unnamed_addr constant [4 x i8] c"%d\0A\00", align 1

; Function Attrs: nofree norecurse nosync nounwind readnone sspstrong uwtable
define dso_local i32 @month(i32 %0) local_unnamed_addr #0 {
  %2 = icmp sgt i32 %0, 0
  br i1 %2, label %3, label %25

3:                                                ; preds = %1, %3
  %4 = phi i32 [ %23, %3 ], [ 0, %1 ]
  %5 = phi i32 [ %22, %3 ], [ 0, %1 ]
  %6 = and i32 %4, 2147483645
  %7 = and i32 %4, 2147483641
  %8 = icmp eq i32 %7, 1
  %9 = icmp eq i32 %6, 8
  %10 = or i1 %9, %8
  %11 = icmp eq i32 %4, 12
  %12 = select i1 %10, i1 true, i1 %11
  %13 = add nsw i32 %5, 31
  %14 = select i1 %12, i32 %13, i32 %5
  %15 = icmp eq i32 %6, 4
  %16 = icmp eq i32 %6, 9
  %17 = or i1 %16, %15
  %18 = add nsw i32 %14, 30
  %19 = select i1 %17, i32 %18, i32 %14
  %20 = icmp eq i32 %4, 2
  %21 = add nsw i32 %19, 28
  %22 = select i1 %20, i32 %21, i32 %19
  %23 = add nuw nsw i32 %4, 1
  %24 = icmp eq i32 %23, %0
  br i1 %24, label %25, label %3, !llvm.loop !5

25:                                               ; preds = %3, %1
  %26 = phi i32 [ 0, %1 ], [ %22, %3 ]
  ret i32 %26
}

; Function Attrs: argmemonly mustprogress nofree nosync nounwind willreturn
declare void @llvm.lifetime.start.p0i8(i64 immarg, i8* nocapture) #1

; Function Attrs: argmemonly mustprogress nofree nosync nounwind willreturn
declare void @llvm.lifetime.end.p0i8(i64 immarg, i8* nocapture) #1

; Function Attrs: nofree norecurse nosync nounwind readnone sspstrong uwtable
define dso_local i32 @fri(i32 %0, i32 %1) local_unnamed_addr #0 {
  %3 = icmp sgt i32 %0, 0
  br i1 %3, label %4, label %29

4:                                                ; preds = %2, %4
  %5 = phi i32 [ %24, %4 ], [ 0, %2 ]
  %6 = phi i32 [ %23, %4 ], [ 0, %2 ]
  %7 = and i32 %5, 2147483645
  %8 = and i32 %5, 2147483641
  %9 = icmp eq i32 %8, 1
  %10 = icmp eq i32 %7, 8
  %11 = or i1 %10, %9
  %12 = icmp eq i32 %5, 12
  %13 = select i1 %11, i1 true, i1 %12
  %14 = add nsw i32 %6, 31
  %15 = select i1 %13, i32 %14, i32 %6
  %16 = icmp eq i32 %7, 4
  %17 = icmp eq i32 %7, 9
  %18 = or i1 %17, %16
  %19 = add nsw i32 %15, 30
  %20 = select i1 %18, i32 %19, i32 %15
  %21 = icmp eq i32 %5, 2
  %22 = add nsw i32 %20, 28
  %23 = select i1 %21, i32 %22, i32 %20
  %24 = add nuw nsw i32 %5, 1
  %25 = icmp eq i32 %24, %0
  br i1 %25, label %26, label %4, !llvm.loop !5

26:                                               ; preds = %4
  %27 = add i32 %23, 13
  %28 = srem i32 %27, 7
  br label %29

29:                                               ; preds = %26, %2
  %30 = phi i32 [ 6, %2 ], [ %28, %26 ]
  %31 = add nsw i32 %30, %1
  %32 = icmp sgt i32 %31, 7
  %33 = select i1 %32, i32 -8, i32 -1
  %34 = add nsw i32 %33, %31
  ret i32 %34
}

; Function Attrs: nofree nounwind sspstrong uwtable
define dso_local i32 @main() local_unnamed_addr #2 {
  %1 = alloca i32, align 4
  %2 = bitcast i32* %1 to i8*
  call void @llvm.lifetime.start.p0i8(i64 4, i8* nonnull %2) #4
  %3 = call i32 (i8*, ...) @__isoc99_scanf(i8* getelementptr inbounds ([3 x i8], [3 x i8]* @.str, i64 0, i64 0), i32* nonnull %1)
  br label %4

4:                                                ; preds = %0, %37
  %5 = phi i32 [ 1, %0 ], [ %38, %37 ]
  %6 = load i32, i32* %1, align 4, !tbaa !7
  br label %7

7:                                                ; preds = %7, %4
  %8 = phi i32 [ %25, %7 ], [ 0, %4 ]
  %9 = phi i32 [ %24, %7 ], [ 0, %4 ]
  %10 = and i32 %8, 2147483645
  %11 = and i32 %8, 2147483641
  %12 = icmp eq i32 %11, 1
  %13 = icmp eq i32 %10, 8
  %14 = or i1 %13, %12
  %15 = add nsw i32 %9, 31
  %16 = select i1 %14, i32 %15, i32 %9
  %17 = icmp eq i32 %10, 4
  %18 = icmp eq i32 %10, 9
  %19 = or i1 %18, %17
  %20 = add nsw i32 %16, 30
  %21 = select i1 %19, i32 %20, i32 %16
  %22 = icmp eq i32 %8, 2
  %23 = add nsw i32 %21, 28
  %24 = select i1 %22, i32 %23, i32 %21
  %25 = add nuw nsw i32 %8, 1
  %26 = icmp eq i32 %25, %5
  br i1 %26, label %27, label %7, !llvm.loop !5

27:                                               ; preds = %7
  %28 = add i32 %24, 13
  %29 = srem i32 %28, 7
  %30 = add nsw i32 %29, %6
  %31 = icmp sgt i32 %30, 7
  %32 = select i1 %31, i32 -8, i32 -1
  %33 = add nsw i32 %32, %30
  %34 = icmp eq i32 %33, 5
  br i1 %34, label %35, label %37

35:                                               ; preds = %27
  %36 = call i32 (i8*, ...) @printf(i8* nonnull dereferenceable(1) getelementptr inbounds ([4 x i8], [4 x i8]* @.str.1, i64 0, i64 0), i32 %5)
  br label %37

37:                                               ; preds = %35, %27
  %38 = add nuw nsw i32 %5, 1
  %39 = icmp eq i32 %38, 13
  br i1 %39, label %40, label %4, !llvm.loop !11

40:                                               ; preds = %37
  call void @llvm.lifetime.end.p0i8(i64 4, i8* nonnull %2) #4
  ret i32 0
}

; Function Attrs: nofree nounwind
declare noundef i32 @__isoc99_scanf(i8* nocapture noundef readonly, ...) local_unnamed_addr #3

; Function Attrs: nofree nounwind
declare noundef i32 @printf(i8* nocapture noundef readonly, ...) local_unnamed_addr #3


!llvm.module.flags = !{!0, !1, !2, !3}
!llvm.ident = !{!4}

!0 = !{i32 1, !"wchar_size", i32 4}
!1 = !{i32 7, !"PIC Level", i32 2}
!2 = !{i32 7, !"PIE Level", i32 2}
!3 = !{i32 7, !"uwtable", i32 1}
!4 = !{!"clang version 13.0.0"}
!5 = distinct !{!5, !6}
!6 = !{!"llvm.loop.mustprogress"}
!7 = !{!8, !8, i64 0}
!8 = !{!"int", !9, i64 0}
!9 = !{!"omnipotent char", !10, i64 0}
!10 = !{!"Simple C/C++ TBAA"}
!11 = distinct !{!11, !6}
